; Function Attrs: nounwind uwtable
define internal fastcc ptr @php_var_serialize_call_sleep(ptr noundef %0, ptr noundef %1) unnamed_addr #0 {
  %3 = alloca %struct._zval_struct, align 8
  %4 = load i32, ptr getelementptr inbounds (%struct._php_basic_globals, ptr @basic_globals, i64 0, i32 22), align 8
  %5 = add i32 %4, 1
  store i32 %5, ptr getelementptr inbounds (%struct._php_basic_globals, ptr @basic_globals, i64 0, i32 22), align 8
  %6 = getelementptr inbounds i8, ptr %0, i64 16
  %7 = load ptr, ptr %6, align 8
  call void @zend_call_known_function(ptr noundef %1, ptr noundef %0, ptr noundef %7, ptr noundef nonnull %3, i32 noundef 0, ptr noundef null, ptr noundef null) #12
  %8 = load i32, ptr getelementptr inbounds (%struct._php_basic_globals, ptr @basic_globals, i64 0, i32 22), align 8
  %9 = add i32 %8, -1
  store i32 %9, ptr getelementptr inbounds (%struct._php_basic_globals, ptr @basic_globals, i64 0, i32 22), align 8
  %10 = getelementptr inbounds i8, ptr %3, i64 8
  %11 = load i8, ptr %10, align 8
  %12 = icmp eq i8 %11, 0
  %13 = load ptr, ptr getelementptr inbounds (%struct._zend_executor_globals, ptr @executor_globals, i64 0, i32 50), align 8
  %14 = icmp ne ptr %13, null
  %or.cond = select i1 %12, i1 true, i1 %14
  br i1 %or.cond, label %15, label %16

15:                                               ; preds = %2
  call void @zval_ptr_dtor(ptr noundef nonnull %3) #12
  br label %24

16:                                               ; preds = %2
  %.not = icmp eq i8 %11, 7
  br i1 %.not, label %22, label %17

17:                                               ; preds = %16
  call void @zval_ptr_dtor(ptr noundef nonnull %3) #12
  %18 = load ptr, ptr %6, align 8
  %19 = getelementptr inbounds i8, ptr %18, i64 8
  %20 = load ptr, ptr %19, align 8
  %21 = getelementptr inbounds i8, ptr %20, i64 24
  call void (ptr, i32, ptr, ...) @php_error_docref(ptr noundef null, i32 noundef 2, ptr noundef nonnull @.str.87, ptr noundef nonnull %21) #12
  br label %24

22:                                               ; preds = %16
  %23 = load ptr, ptr %3, align 8
  br label %24

24:                                               ; preds = %22, %17, %15
  %.0 = phi ptr [ null, %15 ], [ null, %17 ], [ %23, %22 ]
  ret ptr %.0
}